; Function Attrs: mustprogress uwtable
define void @_ZN15MainApplication20openDialogInitialDirEv(ptr dead_on_unwind noalias writable sret(%class.QDir) align 8 %0, ptr nocapture noundef nonnull readnone align 8 dereferenceable(216) %1) local_unnamed_addr #3 align 2 personality ptr @__gxx_personality_v0 {
  %3 = alloca %class.QString, align 16
  %4 = alloca %class.QString, align 16
  %5 = tail call ptr @get_open_dialog_initial_dir()
  call void @llvm.lifetime.start.p0(i64 24, ptr nonnull %3)
  %.not.i.i = icmp eq ptr %5, null
  br i1 %.not.i.i, label %_ZN7QStringC2EPKc.exit, label %.split.i.i

.split.i.i:                                       ; preds = %2
  %6 = tail call noundef i64 @strlen(ptr noundef nonnull dereferenceable(1) %5) #26
  br label %_ZN7QStringC2EPKc.exit

_ZN7QStringC2EPKc.exit:                           ; preds = %2, %.split.i.i
  %.sink5.i.i = phi i64 [ %6, %.split.i.i ], [ 0, %2 ]
  call void @_ZN7QString8fromUtf8E14QByteArrayView(ptr dead_on_unwind nonnull writable sret(%class.QString) align 8 %3, i64 %.sink5.i.i, ptr %5)
  %7 = load <2 x ptr>, ptr %3, align 16
  store <2 x ptr> %7, ptr %4, align 16
  %8 = getelementptr inbounds i8, ptr %4, i64 16
  %9 = getelementptr inbounds i8, ptr %3, i64 16
  %10 = load i64, ptr %9, align 16
  store i64 %10, ptr %8, align 16
  call void @llvm.lifetime.end.p0(i64 24, ptr nonnull %3)
  invoke void @_ZN4QDirC1ERK7QString(ptr noundef nonnull align 8 dereferenceable(8) %0, ptr noundef nonnull align 8 dereferenceable(24) %4)
          to label %11 unwind label %16

11:                                               ; preds = %_ZN7QStringC2EPKc.exit
  %12 = load ptr, ptr %4, align 16
  %.not.i.i.i = icmp eq ptr %12, null
  br i1 %.not.i.i.i, label %_ZN7QStringD2Ev.exit, label %_ZN17QArrayDataPointerIDsE5derefEv.exit.i.i

_ZN17QArrayDataPointerIDsE5derefEv.exit.i.i:      ; preds = %11
  %13 = atomicrmw sub ptr %12, i32 1 seq_cst, align 4
  %.not.i.i1 = icmp eq i32 %13, 1
  br i1 %.not.i.i1, label %14, label %_ZN7QStringD2Ev.exit

14:                                               ; preds = %_ZN17QArrayDataPointerIDsE5derefEv.exit.i.i
  %15 = load ptr, ptr %4, align 16
  call void @_ZN10QArrayData10deallocateEPS_xx(ptr noundef %15, i64 noundef 2, i64 noundef 8) #26
  br label %_ZN7QStringD2Ev.exit

_ZN7QStringD2Ev.exit:                             ; preds = %11, %_ZN17QArrayDataPointerIDsE5derefEv.exit.i.i, %14
  ret void

16:                                               ; preds = %_ZN7QStringC2EPKc.exit
  %17 = landingpad { ptr, i32 }
          cleanup
  %18 = load ptr, ptr %4, align 16
  %.not.i.i.i2 = icmp eq ptr %18, null
  br i1 %.not.i.i.i2, label %_ZN7QStringD2Ev.exit5, label %_ZN17QArrayDataPointerIDsE5derefEv.exit.i.i3

_ZN17QArrayDataPointerIDsE5derefEv.exit.i.i3:     ; preds = %16
  %19 = atomicrmw sub ptr %18, i32 1 seq_cst, align 4
  %.not.i.i4 = icmp eq i32 %19, 1
  br i1 %.not.i.i4, label %20, label %_ZN7QStringD2Ev.exit5

20:                                               ; preds = %_ZN17QArrayDataPointerIDsE5derefEv.exit.i.i3
  %21 = load ptr, ptr %4, align 16
  call void @_ZN10QArrayData10deallocateEPS_xx(ptr noundef %21, i64 noundef 2, i64 noundef 8) #26
  br label %_ZN7QStringD2Ev.exit5

_ZN7QStringD2Ev.exit5:                            ; preds = %16, %_ZN17QArrayDataPointerIDsE5derefEv.exit.i.i3, %20
  resume { ptr, i32 } %17
}